target datalayout = "e-m:e-p270:32:32-p271:32:32-p272:64:64-i64:64-i128:128-f80:128-n8:16:32:64-S128"
target triple = "x86_64-unknown-linux-gnu"

%struct.PCIDevice = type { %struct.DeviceState, i8, i8, ptr, ptr, ptr, ptr, ptr, i32, %struct.PCIReqIDCache, [64 x i8], [7 x %struct.PCIIORegion], %struct.AddressSpace, %struct.MemoryRegion, %struct.MemoryRegion, ptr, ptr, [3 x ptr], i8, i8, i32, i8, i32, ptr, ptr, ptr, ptr, ptr, ptr, %struct.MemoryRegion, %struct.MemoryRegion, %struct.MemoryRegion, ptr, i8, i32, i8, %struct.PCIExpressDevice, ptr, ptr, i32, i8, %struct.MemoryRegion, i32, ptr, ptr, ptr, ptr, ptr, i32 }
%struct.DeviceState = type { %struct.Object, ptr, ptr, i8, i8, i64, ptr, i32, i8, ptr, %struct.NamedGPIOListHead, %struct.NamedClockListHead, %struct.BusStateHead, i32, i32, i32, %struct.ResettableState, ptr, %struct.MemReentrancyGuard }
%struct.Object = type { ptr, ptr, ptr, i32, ptr }
%struct.NamedGPIOListHead = type { ptr }
%struct.NamedClockListHead = type { ptr }
%struct.BusStateHead = type { ptr }
%struct.ResettableState = type { i32, i8, i8 }
%struct.MemReentrancyGuard = type { i8 }
%struct.PCIReqIDCache = type { ptr, i32 }
%struct.PCIIORegion = type { i64, i64, i8, ptr, ptr }
%struct.AddressSpace = type { %struct.rcu_head, ptr, ptr, ptr, i32, i32, ptr, %union.anon, %union.anon.0 }
%struct.rcu_head = type { ptr, ptr }
%union.anon = type { %struct.QTailQLink }
%struct.QTailQLink = type { ptr, ptr }
%union.anon.0 = type { %struct.QTailQLink }
%struct.PCIExpressDevice = type { i8, i8, i8, i16, %struct.PCIEAERLog, i16, i16, i16, %struct.PCIESriovPF, %struct.PCIESriovVF }
%struct.PCIEAERLog = type { i16, i16, ptr }
%struct.PCIESriovPF = type { i16, [7 x i8], ptr, ptr }
%struct.PCIESriovVF = type { ptr, i16 }
%struct.MemoryRegion = type { %struct.Object, i8, i8, i8, i8, i8, i8, i8, i8, i8, i8, ptr, ptr, ptr, ptr, ptr, ptr, i32, i128, i64, ptr, i64, i8, i8, i8, i8, i8, ptr, i64, i32, %union.anon.1, %union.anon.2, %union.anon.3, ptr, i32, ptr, ptr, i8 }
%union.anon.1 = type { %struct.QTailQLink }
%union.anon.2 = type { %struct.QTailQLink }
%union.anon.3 = type { %struct.QTailQLink }

@.str.7 = private unnamed_addr constant [8 x i8] c"%s-msix\00", align 1

; Function Attrs: nounwind sspstrong uwtable
define internal i32 @clz64(i64 noundef %val) #0 {
entry:
  %val.addr = alloca i64, align 8
  store i64 %val, ptr %val.addr, align 8
  %0 = load i64, ptr %val.addr, align 8
  %tobool = icmp ne i64 %0, 0
  br i1 %tobool, label %cond.true, label %cond.false

cond.true:                                        ; preds = %entry
  %1 = load i64, ptr %val.addr, align 8
  %2 = call i64 @llvm.ctlz.i64(i64 %1, i1 true)
  %cast = trunc i64 %2 to i32
  br label %cond.end

cond.false:                                       ; preds = %entry
  br label %cond.end

cond.end:                                         ; preds = %cond.false, %cond.true
  %cond = phi i32 [ %cast, %cond.true ], [ 64, %cond.false ]
  ret i32 %cond
}

; Function Attrs: nounwind sspstrong uwtable
define internal i64 @pow2ceil(i64 noundef %value) #0 {
entry:
  %retval = alloca i64, align 8
  %value.addr = alloca i64, align 8
  %n = alloca i32, align 4
  store i64 %value, ptr %value.addr, align 8
  %0 = load i64, ptr %value.addr, align 8
  %sub = sub i64 %0, 1
  %call = call i32 @clz64(i64 noundef %sub)
  store i32 %call, ptr %n, align 4
  %1 = load i32, ptr %n, align 4
  %tobool = icmp ne i32 %1, 0
  br i1 %tobool, label %if.end, label %if.then

if.then:                                          ; preds = %entry
  %2 = load i64, ptr %value.addr, align 8
  %tobool1 = icmp ne i64 %2, 0
  %lnot = xor i1 %tobool1, true
  %lnot.ext = zext i1 %lnot to i32
  %conv = sext i32 %lnot.ext to i64
  store i64 %conv, ptr %retval, align 8
  br label %return

if.end:                                           ; preds = %entry
  %3 = load i32, ptr %n, align 4
  %sub2 = sub i32 %3, 1
  %sh_prom = zext i32 %sub2 to i64
  %shr = lshr i64 -9223372036854775808, %sh_prom
  store i64 %shr, ptr %retval, align 8
  br label %return

return:                                           ; preds = %if.end, %if.then
  %4 = load i64, ptr %retval, align 8
  ret i64 %4
}

; Function Attrs: nounwind sspstrong uwtable
define dso_local i32 @msix_init_exclusive_bar(ptr noundef %dev, i16 noundef zeroext %nentries, i8 noundef zeroext %bar_nr, ptr noundef %errp) #0 {
entry:
  %retval = alloca i32, align 4
  %dev.addr = alloca ptr, align 8
  %nentries.addr = alloca i16, align 2
  %bar_nr.addr = alloca i8, align 1
  %errp.addr = alloca ptr, align 8
  %ret = alloca i32, align 4
  %name = alloca ptr, align 8
  %bar_size = alloca i32, align 4
  %bar_pba_offset = alloca i32, align 4
  %bar_pba_size = alloca i32, align 4
  store ptr %dev, ptr %dev.addr, align 8
  store i16 %nentries, ptr %nentries.addr, align 2
  store i8 %bar_nr, ptr %bar_nr.addr, align 1
  store ptr %errp, ptr %errp.addr, align 8
  store i32 4096, ptr %bar_size, align 4
  %0 = load i32, ptr %bar_size, align 4
  %div = udiv i32 %0, 2
  store i32 %div, ptr %bar_pba_offset, align 4
  %1 = load i16, ptr %nentries.addr, align 2
  %conv = zext i16 %1 to i32
  %add = add i32 %conv, 64
  %sub = sub i32 %add, 1
  %div1 = sdiv i32 %sub, 64
  %mul = mul i32 %div1, 64
  %div2 = sdiv i32 %mul, 8
  store i32 %div2, ptr %bar_pba_size, align 4
  %2 = load i16, ptr %nentries.addr, align 2
  %conv3 = zext i16 %2 to i32
  %mul4 = mul i32 %conv3, 16
  %3 = load i32, ptr %bar_pba_offset, align 4
  %cmp = icmp ugt i32 %mul4, %3
  br i1 %cmp, label %if.then, label %if.end

if.then:                                          ; preds = %entry
  %4 = load i16, ptr %nentries.addr, align 2
  %conv6 = zext i16 %4 to i32
  %mul7 = mul i32 %conv6, 16
  store i32 %mul7, ptr %bar_pba_offset, align 4
  br label %if.end

if.end:                                           ; preds = %if.then, %entry
  %5 = load i32, ptr %bar_pba_offset, align 4
  %6 = load i32, ptr %bar_pba_size, align 4
  %add8 = add i32 %5, %6
  %cmp9 = icmp ugt i32 %add8, 4096
  br i1 %cmp9, label %if.then11, label %if.end13

if.then11:                                        ; preds = %if.end
  %7 = load i32, ptr %bar_pba_offset, align 4
  %8 = load i32, ptr %bar_pba_size, align 4
  %add12 = add i32 %7, %8
  store i32 %add12, ptr %bar_size, align 4
  br label %if.end13

if.end13:                                         ; preds = %if.then11, %if.end
  %9 = load i32, ptr %bar_size, align 4
  %conv14 = zext i32 %9 to i64
  %call = call i64 @pow2ceil(i64 noundef %conv14)
  %conv15 = trunc i64 %call to i32
  store i32 %conv15, ptr %bar_size, align 4
  %10 = load ptr, ptr %dev.addr, align 8
  %name16 = getelementptr inbounds %struct.PCIDevice, ptr %10, i32 0, i32 10
  %arraydecay = getelementptr inbounds [64 x i8], ptr %name16, i64 0, i64 0
  %call17 = call noalias ptr (ptr, ...) @g_strdup_printf(ptr noundef @.str.7, ptr noundef %arraydecay)
  store ptr %call17, ptr %name, align 8
  %11 = load ptr, ptr %dev.addr, align 8
  %msix_exclusive_bar = getelementptr inbounds %struct.PCIDevice, ptr %11, i32 0, i32 29
  %12 = load ptr, ptr %dev.addr, align 8
  %13 = load ptr, ptr %name, align 8
  %14 = load i32, ptr %bar_size, align 4
  %conv18 = zext i32 %14 to i64
  call void @memory_region_init(ptr noundef %msix_exclusive_bar, ptr noundef %12, ptr noundef %13, i64 noundef %conv18)
  %15 = load ptr, ptr %name, align 8
  call void @g_free(ptr noundef %15)
  %16 = load ptr, ptr %dev.addr, align 8
  %17 = load i16, ptr %nentries.addr, align 2
  %18 = load ptr, ptr %dev.addr, align 8
  %msix_exclusive_bar19 = getelementptr inbounds %struct.PCIDevice, ptr %18, i32 0, i32 29
  %19 = load i8, ptr %bar_nr.addr, align 1
  %20 = load ptr, ptr %dev.addr, align 8
  %msix_exclusive_bar20 = getelementptr inbounds %struct.PCIDevice, ptr %20, i32 0, i32 29
  %21 = load i8, ptr %bar_nr.addr, align 1
  %22 = load i32, ptr %bar_pba_offset, align 4
  %23 = load ptr, ptr %errp.addr, align 8
  %call21 = call i32 @msix_init(ptr noundef %16, i16 noundef zeroext %17, ptr noundef %msix_exclusive_bar19, i8 noundef zeroext %19, i32 noundef 0, ptr noundef %msix_exclusive_bar20, i8 noundef zeroext %21, i32 noundef %22, i8 noundef zeroext 0, ptr noundef %23)
  store i32 %call21, ptr %ret, align 4
  %24 = load i32, ptr %ret, align 4
  %tobool = icmp ne i32 %24, 0
  br i1 %tobool, label %if.then22, label %if.end23

if.then22:                                        ; preds = %if.end13
  %25 = load i32, ptr %ret, align 4
  store i32 %25, ptr %retval, align 4
  br label %return

if.end23:                                         ; preds = %if.end13
  %26 = load ptr, ptr %dev.addr, align 8
  %27 = load i8, ptr %bar_nr.addr, align 1
  %conv24 = zext i8 %27 to i32
  %28 = load ptr, ptr %dev.addr, align 8
  %msix_exclusive_bar25 = getelementptr inbounds %struct.PCIDevice, ptr %28, i32 0, i32 29
  call void @pci_register_bar(ptr noundef %26, i32 noundef %conv24, i8 noundef zeroext 0, ptr noundef %msix_exclusive_bar25)
  store i32 0, ptr %retval, align 4
  br label %return

return:                                           ; preds = %if.end23, %if.then22
  %29 = load i32, ptr %retval, align 4
  ret i32 %29
}