; Function Attrs: nounwind sspstrong uwtable
define dso_local range(i32 -2147483648, 1) i32 @msix_init_exclusive_bar(ptr noundef %dev, i16 noundef zeroext %nentries, i8 noundef zeroext %bar_nr, ptr noundef %errp) local_unnamed_addr #0 {
entry:
  %conv = zext i16 %nentries to i32
  %sub = add nuw nsw i32 %conv, 63
  %div121 = lshr i32 %sub, 3
  %div222 = and i32 %div121, 16376
  %cmp = icmp ugt i16 %nentries, 128
  %mul4 = shl nuw nsw i32 %conv, 4
  %spec.select = select i1 %cmp, i32 %mul4, i32 2048
  %add8 = add nuw nsw i32 %div222, %spec.select
  %narrow = tail call i32 @llvm.umax.i32(i32 %add8, i32 4096)
  %bar_size.0 = zext nneg i32 %narrow to i64
  %sub.i = add nsw i64 %bar_size.0, -1
  %0 = tail call range(i64 43, 65) i64 @llvm.ctlz.i64(i64 range(i64 4095, 1056752) %sub.i, i1 true)
  %sub2.i = add nuw nsw i64 %0, 4294967295
  %sh_prom.i = and i64 %sub2.i, 4294967295
  %shr.i = lshr exact i64 -9223372036854775808, %sh_prom.i
  %name16 = getelementptr inbounds nuw i8, ptr %dev, i64 232
  %call17 = tail call noalias ptr (ptr, ...) @g_strdup_printf(ptr noundef nonnull @.str.7, ptr noundef nonnull %name16) #14
  %msix_exclusive_bar = getelementptr inbounds nuw i8, ptr %dev, i64 1328
  tail call void @memory_region_init(ptr noundef nonnull %msix_exclusive_bar, ptr noundef %dev, ptr noundef %call17, i64 noundef %shr.i) #14
  tail call void @g_free(ptr noundef %call17) #14
  %call21 = tail call i32 @msix_init(ptr noundef %dev, i16 noundef zeroext %nentries, ptr noundef nonnull %msix_exclusive_bar, i8 noundef zeroext %bar_nr, i32 noundef 0, ptr noundef nonnull %msix_exclusive_bar, i8 noundef zeroext %bar_nr, i32 noundef %spec.select, i8 noundef zeroext 0, ptr noundef %errp)
  %tobool.not = icmp eq i32 %call21, 0
  br i1 %tobool.not, label %if.end23, label %return

if.end23:                                         ; preds = %entry
  %conv24 = zext i8 %bar_nr to i32
  tail call void @pci_register_bar(ptr noundef nonnull %dev, i32 noundef %conv24, i8 noundef zeroext 0, ptr noundef nonnull %msix_exclusive_bar) #14
  br label %return

return:                                           ; preds = %entry, %if.end23
  ret i32 %call21
}